target datalayout = "e-m:e-p270:32:32-p271:32:32-p272:64:64-i64:64-i128:128-f80:128-n8:16:32:64-S128"
target triple = "x86_64-pc-linux-gnu"

%"struct.duckdb_libpgquery::PGScanKeyword" = type { ptr, i16, i16 }

; Function Attrs: mustprogress uwtable
define hidden noundef zeroext i8 @_ZN17duckdb_libpgquery10is_keywordEPKc(ptr noundef %0) #0 {
  %2 = alloca i8, align 1
  %3 = alloca ptr, align 8
  %4 = alloca ptr, align 8
  %5 = alloca i32, align 4
  store ptr %0, ptr %3, align 8, !tbaa !3
  call void @llvm.lifetime.start.p0(i64 8, ptr %4) #14
  %6 = load ptr, ptr %3, align 8, !tbaa !3
  %7 = call noundef ptr @_ZN17duckdb_libpgquery17ScanKeywordLookupEPKcPKNS_13PGScanKeywordEi(ptr noundef %6, ptr noundef @_ZN17duckdb_libpgqueryL12ScanKeywordsE, i32 noundef 480)
  store ptr %7, ptr %4, align 8, !tbaa !19
  %8 = load ptr, ptr %4, align 8, !tbaa !19
  %9 = icmp ne ptr %8, null
  br i1 %9, label %10, label %15

10:                                               ; preds = %1
  %11 = load ptr, ptr %4, align 8, !tbaa !19
  %12 = getelementptr inbounds nuw %"struct.duckdb_libpgquery::PGScanKeyword", ptr %11, i32 0, i32 2
  %13 = load i16, ptr %12, align 2, !tbaa !20
  %14 = trunc i16 %13 to i8
  store i8 %14, ptr %2, align 1
  store i32 1, ptr %5, align 4
  br label %16

15:                                               ; preds = %1
  store i8 4, ptr %2, align 1
  store i32 1, ptr %5, align 4
  br label %16

16:                                               ; preds = %15, %10
  call void @llvm.lifetime.end.p0(i64 8, ptr %4) #14
  %17 = load i8, ptr %2, align 1
  ret i8 %17
}