; Function Attrs: mustprogress uwtable
define hidden noundef zeroext i8 @_ZN17duckdb_libpgquery10is_keywordEPKc(ptr noundef %0) local_unnamed_addr #0 {
  %2 = tail call noundef ptr @_ZN17duckdb_libpgquery17ScanKeywordLookupEPKcPKNS_13PGScanKeywordEi(ptr noundef %0, ptr noundef nonnull @_ZN17duckdb_libpgqueryL12ScanKeywordsE, i32 noundef 480)
  %.not = icmp eq ptr %2, null
  br i1 %.not, label %7, label %3

3:                                                ; preds = %1
  %4 = getelementptr inbounds nuw i8, ptr %2, i64 10
  %5 = load i16, ptr %4, align 2, !tbaa !15
  %6 = trunc i16 %5 to i8
  br label %7

7:                                                ; preds = %1, %3
  %.0 = phi i8 [ %6, %3 ], [ 4, %1 ]
  ret i8 %.0
}